; Function Attrs: mustprogress uwtable
define void @_ZN11CMainWindow9slotAboutEv(ptr noundef nonnull align 8 dereferenceable(280) %0) #0 align 2 personality ptr @__gxx_personality_v0 {
  %2 = alloca %class.QString, align 8
  %3 = alloca %class.QString, align 8
  %4 = alloca %class.QString, align 8
  call void @llvm.lifetime.start.p0(i64 24, ptr nonnull %2) #16
  call void @_ZNK11QMetaObject2trEPKcS1_i(ptr dead_on_unwind nonnull writable sret(%class.QString) align 8 %2, ptr noundef nonnull align 8 dereferenceable(56) @_ZN11CMainWindow16staticMetaObjectE, ptr noundef nonnull @.str.24, ptr noundef null, i32 noundef -1)
  call void @llvm.lifetime.start.p0(i64 24, ptr nonnull %3) #16
  %5 = getelementptr inbounds nuw i8, ptr %0, i64 232
  %6 = load ptr, ptr %5, align 8, !tbaa !68
  %7 = getelementptr inbounds nuw i8, ptr %6, i64 64
  %8 = load ptr, ptr %7, align 8, !tbaa !75
  %9 = invoke ptr @gvcVersion(ptr noundef %8)
          to label %10 unwind label %25

10:                                               ; preds = %1
  invoke void @_ZNK11QMetaObject2trEPKcS1_i(ptr dead_on_unwind nonnull writable sret(%class.QString) align 8 %3, ptr noundef nonnull align 8 dereferenceable(56) @_ZN11CMainWindow16staticMetaObjectE, ptr noundef %9, ptr noundef null, i32 noundef -1)
          to label %_ZN11CMainWindow2trEPKcS1_i.exit unwind label %25

_ZN11CMainWindow2trEPKcS1_i.exit:                 ; preds = %10
  %11 = invoke noundef nonnull align 8 dereferenceable(24) ptr @_ZN7QString6appendERKS_(ptr noundef nonnull align 8 dereferenceable(24) %2, ptr noundef nonnull align 8 dereferenceable(24) %3)
          to label %_ZN7QStringpLERKS_.exit unwind label %27

_ZN7QStringpLERKS_.exit:                          ; preds = %_ZN11CMainWindow2trEPKcS1_i.exit
  %12 = load ptr, ptr %3, align 8, !tbaa !11
  %.not.i.i.i = icmp eq ptr %12, null
  br i1 %.not.i.i.i, label %_ZN7QStringD2Ev.exit, label %_ZN17QArrayDataPointerIDsE5derefEv.exit.i.i

_ZN17QArrayDataPointerIDsE5derefEv.exit.i.i:      ; preds = %_ZN7QStringpLERKS_.exit
  %13 = atomicrmw sub ptr %12, i32 1 seq_cst, align 4
  %.not.i.i = icmp eq i32 %13, 1
  br i1 %.not.i.i, label %14, label %_ZN7QStringD2Ev.exit

14:                                               ; preds = %_ZN17QArrayDataPointerIDsE5derefEv.exit.i.i
  %15 = load ptr, ptr %3, align 8, !tbaa !11
  call void @_ZN10QArrayData10deallocateEPS_xx(ptr noundef %15, i64 noundef 2, i64 noundef 8) #16
  br label %_ZN7QStringD2Ev.exit

_ZN7QStringD2Ev.exit:                             ; preds = %_ZN7QStringpLERKS_.exit, %_ZN17QArrayDataPointerIDsE5derefEv.exit.i.i, %14
  call void @llvm.lifetime.end.p0(i64 24, ptr nonnull %3) #16
  call void @llvm.lifetime.start.p0(i64 24, ptr nonnull %4) #16
  invoke void @_ZNK11QMetaObject2trEPKcS1_i(ptr dead_on_unwind nonnull writable sret(%class.QString) align 8 %4, ptr noundef nonnull align 8 dereferenceable(56) @_ZN11CMainWindow16staticMetaObjectE, ptr noundef nonnull @.str.25, ptr noundef null, i32 noundef -1)
          to label %_ZN11CMainWindow2trEPKcS1_i.exit9 unwind label %33

_ZN11CMainWindow2trEPKcS1_i.exit9:                ; preds = %_ZN7QStringD2Ev.exit
  invoke void @_ZN11QMessageBox5aboutEP7QWidgetRK7QStringS4_(ptr noundef nonnull %0, ptr noundef nonnull align 8 dereferenceable(24) %4, ptr noundef nonnull align 8 dereferenceable(24) %2)
          to label %16 unwind label %35

16:                                               ; preds = %_ZN11CMainWindow2trEPKcS1_i.exit9
  %17 = load ptr, ptr %4, align 8, !tbaa !11
  %.not.i.i.i10 = icmp eq ptr %17, null
  br i1 %.not.i.i.i10, label %_ZN7QStringD2Ev.exit13, label %_ZN17QArrayDataPointerIDsE5derefEv.exit.i.i11

_ZN17QArrayDataPointerIDsE5derefEv.exit.i.i11:    ; preds = %16
  %18 = atomicrmw sub ptr %17, i32 1 seq_cst, align 4
  %.not.i.i12 = icmp eq i32 %18, 1
  br i1 %.not.i.i12, label %19, label %_ZN7QStringD2Ev.exit13

19:                                               ; preds = %_ZN17QArrayDataPointerIDsE5derefEv.exit.i.i11
  %20 = load ptr, ptr %4, align 8, !tbaa !11
  call void @_ZN10QArrayData10deallocateEPS_xx(ptr noundef %20, i64 noundef 2, i64 noundef 8) #16
  br label %_ZN7QStringD2Ev.exit13

_ZN7QStringD2Ev.exit13:                           ; preds = %16, %_ZN17QArrayDataPointerIDsE5derefEv.exit.i.i11, %19
  call void @llvm.lifetime.end.p0(i64 24, ptr nonnull %4) #16
  %21 = load ptr, ptr %2, align 8, !tbaa !11
  %.not.i.i.i14 = icmp eq ptr %21, null
  br i1 %.not.i.i.i14, label %_ZN7QStringD2Ev.exit17, label %_ZN17QArrayDataPointerIDsE5derefEv.exit.i.i15

_ZN17QArrayDataPointerIDsE5derefEv.exit.i.i15:    ; preds = %_ZN7QStringD2Ev.exit13
  %22 = atomicrmw sub ptr %21, i32 1 seq_cst, align 4
  %.not.i.i16 = icmp eq i32 %22, 1
  br i1 %.not.i.i16, label %23, label %_ZN7QStringD2Ev.exit17

23:                                               ; preds = %_ZN17QArrayDataPointerIDsE5derefEv.exit.i.i15
  %24 = load ptr, ptr %2, align 8, !tbaa !11
  call void @_ZN10QArrayData10deallocateEPS_xx(ptr noundef %24, i64 noundef 2, i64 noundef 8) #16
  br label %_ZN7QStringD2Ev.exit17

_ZN7QStringD2Ev.exit17:                           ; preds = %_ZN7QStringD2Ev.exit13, %_ZN17QArrayDataPointerIDsE5derefEv.exit.i.i15, %23
  call void @llvm.lifetime.end.p0(i64 24, ptr nonnull %2) #16
  ret void

25:                                               ; preds = %10, %1
  %26 = landingpad { ptr, i32 }
          cleanup
  br label %_ZN7QStringD2Ev.exit21

27:                                               ; preds = %_ZN11CMainWindow2trEPKcS1_i.exit
  %28 = landingpad { ptr, i32 }
          cleanup
  %29 = load ptr, ptr %3, align 8, !tbaa !11
  %.not.i.i.i18 = icmp eq ptr %29, null
  br i1 %.not.i.i.i18, label %_ZN7QStringD2Ev.exit21, label %_ZN17QArrayDataPointerIDsE5derefEv.exit.i.i19

_ZN17QArrayDataPointerIDsE5derefEv.exit.i.i19:    ; preds = %27
  %30 = atomicrmw sub ptr %29, i32 1 seq_cst, align 4
  %.not.i.i20 = icmp eq i32 %30, 1
  br i1 %.not.i.i20, label %31, label %_ZN7QStringD2Ev.exit21

31:                                               ; preds = %_ZN17QArrayDataPointerIDsE5derefEv.exit.i.i19
  %32 = load ptr, ptr %3, align 8, !tbaa !11
  call void @_ZN10QArrayData10deallocateEPS_xx(ptr noundef %32, i64 noundef 2, i64 noundef 8) #16
  br label %_ZN7QStringD2Ev.exit21

_ZN7QStringD2Ev.exit21:                           ; preds = %31, %_ZN17QArrayDataPointerIDsE5derefEv.exit.i.i19, %27, %25
  %.pn = phi { ptr, i32 } [ %26, %25 ], [ %28, %27 ], [ %28, %_ZN17QArrayDataPointerIDsE5derefEv.exit.i.i19 ], [ %28, %31 ]
  call void @llvm.lifetime.end.p0(i64 24, ptr nonnull %3) #16
  br label %41

33:                                               ; preds = %_ZN7QStringD2Ev.exit
  %34 = landingpad { ptr, i32 }
          cleanup
  br label %_ZN7QStringD2Ev.exit25

35:                                               ; preds = %_ZN11CMainWindow2trEPKcS1_i.exit9
  %36 = landingpad { ptr, i32 }
          cleanup
  %37 = load ptr, ptr %4, align 8, !tbaa !11
  %.not.i.i.i22 = icmp eq ptr %37, null
  br i1 %.not.i.i.i22, label %_ZN7QStringD2Ev.exit25, label %_ZN17QArrayDataPointerIDsE5derefEv.exit.i.i23

_ZN17QArrayDataPointerIDsE5derefEv.exit.i.i23:    ; preds = %35
  %38 = atomicrmw sub ptr %37, i32 1 seq_cst, align 4
  %.not.i.i24 = icmp eq i32 %38, 1
  br i1 %.not.i.i24, label %39, label %_ZN7QStringD2Ev.exit25

39:                                               ; preds = %_ZN17QArrayDataPointerIDsE5derefEv.exit.i.i23
  %40 = load ptr, ptr %4, align 8, !tbaa !11
  call void @_ZN10QArrayData10deallocateEPS_xx(ptr noundef %40, i64 noundef 2, i64 noundef 8) #16
  br label %_ZN7QStringD2Ev.exit25

_ZN7QStringD2Ev.exit25:                           ; preds = %39, %_ZN17QArrayDataPointerIDsE5derefEv.exit.i.i23, %35, %33
  %.pn6 = phi { ptr, i32 } [ %34, %33 ], [ %36, %35 ], [ %36, %_ZN17QArrayDataPointerIDsE5derefEv.exit.i.i23 ], [ %36, %39 ]
  call void @llvm.lifetime.end.p0(i64 24, ptr nonnull %4) #16
  br label %41

41:                                               ; preds = %_ZN7QStringD2Ev.exit25, %_ZN7QStringD2Ev.exit21
  %.pn6.pn = phi { ptr, i32 } [ %.pn6, %_ZN7QStringD2Ev.exit25 ], [ %.pn, %_ZN7QStringD2Ev.exit21 ]
  %42 = load ptr, ptr %2, align 8, !tbaa !11
  %.not.i.i.i26 = icmp eq ptr %42, null
  br i1 %.not.i.i.i26, label %_ZN7QStringD2Ev.exit29, label %_ZN17QArrayDataPointerIDsE5derefEv.exit.i.i27

_ZN17QArrayDataPointerIDsE5derefEv.exit.i.i27:    ; preds = %41
  %43 = atomicrmw sub ptr %42, i32 1 seq_cst, align 4
  %.not.i.i28 = icmp eq i32 %43, 1
  br i1 %.not.i.i28, label %44, label %_ZN7QStringD2Ev.exit29

44:                                               ; preds = %_ZN17QArrayDataPointerIDsE5derefEv.exit.i.i27
  %45 = load ptr, ptr %2, align 8, !tbaa !11
  call void @_ZN10QArrayData10deallocateEPS_xx(ptr noundef %45, i64 noundef 2, i64 noundef 8) #16
  br label %_ZN7QStringD2Ev.exit29

_ZN7QStringD2Ev.exit29:                           ; preds = %41, %_ZN17QArrayDataPointerIDsE5derefEv.exit.i.i27, %44
  call void @llvm.lifetime.end.p0(i64 24, ptr nonnull %2) #16
  resume { ptr, i32 } %.pn6.pn
}